; Function Attrs: mustprogress nofree norecurse nosync nounwind willreturn memory(argmem: read) uwtable
define hidden noundef zeroext i1 @_ZNK6Method26is_method_handle_intrinsicEv(ptr nocapture noundef nonnull readonly align 8 dereferenceable(88) %0) local_unnamed_addr #10 align 2 {
  %2 = getelementptr inbounds i8, ptr %0, i64 52
  %3 = load i16, ptr %2, align 4
  %4 = zext i16 %3 to i32
  %5 = add nsw i32 %4, -396
  %6 = icmp ult i32 %5, 7
  %7 = icmp ne i16 %3, 396
  %spec.select = and i1 %7, %6
  ret i1 %spec.select
}